target datalayout = "e-m:e-p270:32:32-p271:32:32-p272:64:64-i64:64-i128:128-f80:128-n8:16:32:64-S128"
target triple = "x86_64-pc-linux-gnu"

%struct.ggml_backend_buffer_i = type { ptr, ptr, ptr, ptr, ptr, ptr, ptr, ptr, ptr }
%struct.ggml_backend_buffer = type { %struct.ggml_backend_buffer_i, ptr, ptr, i64, i32 }
%struct.ggml_tensor = type { i32, ptr, [4 x i64], [4 x i64], i32, [16 x i32], i32, [10 x ptr], ptr, i64, ptr, [64 x i8], ptr, [8 x i8] }

@.str = private unnamed_addr constant [123 x i8] c"generated/home/dtcxzyw/WorkSpace/Projects/compilers/llvm-opt-benchmark/bench/llama.cpp/llama.cpp/ggml/src/ggml-backend.cpp\00", align 1
@.str.1 = private unnamed_addr constant [23 x i8] c"GGML_ASSERT(%s) failed\00", align 1
@.str.28 = private unnamed_addr constant [23 x i8] c"tensor->buffer == NULL\00", align 1
@.str.29 = private unnamed_addr constant [25 x i8] c"tensor->view_src != NULL\00", align 1
@.str.30 = private unnamed_addr constant [33 x i8] c"tensor->view_src->buffer != NULL\00", align 1
@.str.31 = private unnamed_addr constant [31 x i8] c"tensor->view_src->data != NULL\00", align 1

; Function Attrs: mustprogress uwtable
define void @ggml_backend_buffer_init_tensor(ptr noundef %0, ptr noundef %1) #0 {
  %3 = alloca ptr, align 8
  %4 = alloca ptr, align 8
  store ptr %0, ptr %3, align 8, !tbaa !24
  store ptr %1, ptr %4, align 8, !tbaa !28
  %5 = load ptr, ptr %3, align 8, !tbaa !24
  %6 = getelementptr inbounds nuw %struct.ggml_backend_buffer, ptr %5, i32 0, i32 0
  %7 = getelementptr inbounds nuw %struct.ggml_backend_buffer_i, ptr %6, i32 0, i32 2
  %8 = load ptr, ptr %7, align 8, !tbaa !35
  %9 = icmp ne ptr %8, null
  br i1 %9, label %10, label %17

10:                                               ; preds = %2
  %11 = load ptr, ptr %3, align 8, !tbaa !24
  %12 = getelementptr inbounds nuw %struct.ggml_backend_buffer, ptr %11, i32 0, i32 0
  %13 = getelementptr inbounds nuw %struct.ggml_backend_buffer_i, ptr %12, i32 0, i32 2
  %14 = load ptr, ptr %13, align 8, !tbaa !35
  %15 = load ptr, ptr %3, align 8, !tbaa !24
  %16 = load ptr, ptr %4, align 8, !tbaa !28
  call void %14(ptr noundef %15, ptr noundef %16)
  br label %17

17:                                               ; preds = %10, %2
  ret void
}

; Function Attrs: mustprogress uwtable
define void @ggml_backend_view_init(ptr noundef %0) #0 {
  %2 = alloca ptr, align 8
  store ptr %0, ptr %2, align 8, !tbaa !28
  %3 = load ptr, ptr %2, align 8, !tbaa !28
  %4 = getelementptr inbounds nuw %struct.ggml_tensor, ptr %3, i32 0, i32 1
  %5 = load ptr, ptr %4, align 8, !tbaa !54
  %6 = icmp eq ptr %5, null
  br i1 %6, label %8, label %7

7:                                                ; preds = %1
  call void (ptr, i32, ptr, ...) @ggml_abort(ptr noundef @.str, i32 noundef 1645, ptr noundef @.str.1, ptr noundef @.str.28) #18
  unreachable

8:                                                ; preds = %1
  %9 = load ptr, ptr %2, align 8, !tbaa !28
  %10 = getelementptr inbounds nuw %struct.ggml_tensor, ptr %9, i32 0, i32 8
  %11 = load ptr, ptr %10, align 8, !tbaa !49
  %12 = icmp ne ptr %11, null
  br i1 %12, label %14, label %13

13:                                               ; preds = %8
  call void (ptr, i32, ptr, ...) @ggml_abort(ptr noundef @.str, i32 noundef 1646, ptr noundef @.str.1, ptr noundef @.str.29) #18
  unreachable

14:                                               ; preds = %8
  %15 = load ptr, ptr %2, align 8, !tbaa !28
  %16 = getelementptr inbounds nuw %struct.ggml_tensor, ptr %15, i32 0, i32 8
  %17 = load ptr, ptr %16, align 8, !tbaa !49
  %18 = getelementptr inbounds nuw %struct.ggml_tensor, ptr %17, i32 0, i32 1
  %19 = load ptr, ptr %18, align 8, !tbaa !54
  %20 = icmp ne ptr %19, null
  br i1 %20, label %22, label %21

21:                                               ; preds = %14
  call void (ptr, i32, ptr, ...) @ggml_abort(ptr noundef @.str, i32 noundef 1647, ptr noundef @.str.1, ptr noundef @.str.30) #18
  unreachable

22:                                               ; preds = %14
  %23 = load ptr, ptr %2, align 8, !tbaa !28
  %24 = getelementptr inbounds nuw %struct.ggml_tensor, ptr %23, i32 0, i32 8
  %25 = load ptr, ptr %24, align 8, !tbaa !49
  %26 = getelementptr inbounds nuw %struct.ggml_tensor, ptr %25, i32 0, i32 10
  %27 = load ptr, ptr %26, align 8, !tbaa !70
  %28 = icmp ne ptr %27, null
  br i1 %28, label %30, label %29

29:                                               ; preds = %22
  call void (ptr, i32, ptr, ...) @ggml_abort(ptr noundef @.str, i32 noundef 1648, ptr noundef @.str.1, ptr noundef @.str.31) #18
  unreachable

30:                                               ; preds = %22
  %31 = load ptr, ptr %2, align 8, !tbaa !28
  %32 = getelementptr inbounds nuw %struct.ggml_tensor, ptr %31, i32 0, i32 8
  %33 = load ptr, ptr %32, align 8, !tbaa !49
  %34 = getelementptr inbounds nuw %struct.ggml_tensor, ptr %33, i32 0, i32 1
  %35 = load ptr, ptr %34, align 8, !tbaa !54
  %36 = load ptr, ptr %2, align 8, !tbaa !28
  %37 = getelementptr inbounds nuw %struct.ggml_tensor, ptr %36, i32 0, i32 1
  store ptr %35, ptr %37, align 8, !tbaa !54
  %38 = load ptr, ptr %2, align 8, !tbaa !28
  %39 = getelementptr inbounds nuw %struct.ggml_tensor, ptr %38, i32 0, i32 8
  %40 = load ptr, ptr %39, align 8, !tbaa !49
  %41 = getelementptr inbounds nuw %struct.ggml_tensor, ptr %40, i32 0, i32 10
  %42 = load ptr, ptr %41, align 8, !tbaa !70
  %43 = load ptr, ptr %2, align 8, !tbaa !28
  %44 = getelementptr inbounds nuw %struct.ggml_tensor, ptr %43, i32 0, i32 9
  %45 = load i64, ptr %44, align 8, !tbaa !242
  %46 = getelementptr inbounds nuw i8, ptr %42, i64 %45
  %47 = load ptr, ptr %2, align 8, !tbaa !28
  %48 = getelementptr inbounds nuw %struct.ggml_tensor, ptr %47, i32 0, i32 10
  store ptr %46, ptr %48, align 8, !tbaa !70
  %49 = load ptr, ptr %2, align 8, !tbaa !28
  %50 = getelementptr inbounds nuw %struct.ggml_tensor, ptr %49, i32 0, i32 1
  %51 = load ptr, ptr %50, align 8, !tbaa !54
  %52 = load ptr, ptr %2, align 8, !tbaa !28
  call void @ggml_backend_buffer_init_tensor(ptr noundef %51, ptr noundef %52)
  ret void
}