; Function Attrs: mustprogress uwtable
define void @ggml_backend_view_init(ptr noundef %0) local_unnamed_addr #0 {
  %2 = getelementptr inbounds nuw i8, ptr %0, i64 8
  %3 = load ptr, ptr %2, align 8, !tbaa !47
  %4 = icmp eq ptr %3, null
  br i1 %4, label %6, label %5

5:                                                ; preds = %1
  tail call void (ptr, i32, ptr, ...) @ggml_abort(ptr noundef nonnull @.str, i32 noundef 1645, ptr noundef nonnull @.str.1, ptr noundef nonnull @.str.28) #24
  unreachable

6:                                                ; preds = %1
  %7 = getelementptr inbounds nuw i8, ptr %0, i64 232
  %8 = load ptr, ptr %7, align 8, !tbaa !41
  %.not = icmp eq ptr %8, null
  br i1 %.not, label %9, label %10

9:                                                ; preds = %6
  tail call void (ptr, i32, ptr, ...) @ggml_abort(ptr noundef nonnull @.str, i32 noundef 1646, ptr noundef nonnull @.str.1, ptr noundef nonnull @.str.29) #24
  unreachable

10:                                               ; preds = %6
  %11 = getelementptr inbounds nuw i8, ptr %8, i64 8
  %12 = load ptr, ptr %11, align 8, !tbaa !47
  %.not12 = icmp eq ptr %12, null
  br i1 %.not12, label %13, label %14

13:                                               ; preds = %10
  tail call void (ptr, i32, ptr, ...) @ggml_abort(ptr noundef nonnull @.str, i32 noundef 1647, ptr noundef nonnull @.str.1, ptr noundef nonnull @.str.30) #24
  unreachable

14:                                               ; preds = %10
  %15 = getelementptr inbounds nuw i8, ptr %8, i64 248
  %16 = load ptr, ptr %15, align 8, !tbaa !60
  %.not13 = icmp eq ptr %16, null
  br i1 %.not13, label %17, label %18

17:                                               ; preds = %14
  tail call void (ptr, i32, ptr, ...) @ggml_abort(ptr noundef nonnull @.str, i32 noundef 1648, ptr noundef nonnull @.str.1, ptr noundef nonnull @.str.31) #24
  unreachable

18:                                               ; preds = %14
  store ptr %12, ptr %2, align 8, !tbaa !47
  %19 = getelementptr inbounds nuw i8, ptr %0, i64 240
  %20 = load i64, ptr %19, align 8, !tbaa !217
  %21 = getelementptr inbounds nuw i8, ptr %16, i64 %20
  %22 = getelementptr inbounds nuw i8, ptr %0, i64 248
  store ptr %21, ptr %22, align 8, !tbaa !60
  %23 = getelementptr inbounds nuw i8, ptr %12, i64 16
  %24 = load ptr, ptr %23, align 8, !tbaa !29
  %.not.i = icmp eq ptr %24, null
  br i1 %.not.i, label %ggml_backend_buffer_init_tensor.exit, label %25

25:                                               ; preds = %18
  tail call void %24(ptr noundef nonnull %12, ptr noundef nonnull %0)
  br label %ggml_backend_buffer_init_tensor.exit

ggml_backend_buffer_init_tensor.exit:             ; preds = %18, %25
  ret void
}